(dp1
S'output'
p2
S'missing "pass" in view'
p3
sS'layer'
p4
S'ParserContainer'
p5
sS'code'
p6
S'BEAUTIFY(response._vars)\nresponse.write(\'\\n\', escape=False)\nfor i in itens:\n    response.write(\'\\n\\t\\t\\t\\t\\t\\t<!-- Product 1 -->\\n\\n\\t\\t\\t\\t\\t\\t<div class="product-item \', escape=False)\n    response.write(i[2])\n    response.write(\'">\\n\\t\\t\\t\\t\\t\\t\\t<div class="product discount product_filter">\\n\\t\\t\\t\\t\\t\\t\\t\\t<div class="product_image">\\n\', escape=False)\n    response.write(i[1])\n    response.write(\'\\n\\t\\t\\t\\t\\t\\t\\t\\t</div>\\n                                \', escape=False)\n    response.write(i[0])\n    response.write(\'\\n\\t\\t\\t\\t\\t\\t\\t</div>\\n\\t\\t\\t\\t\\t\\t\\t\\n\\t\\t\\t\\t\\t\\t</div>\\n\', escape=False)'
p7
sS'snapshot'
p8
(dp9
sS'traceback'
p10
S'None\n'
p11
s.